target datalayout = "e-m:e-p270:32:32-p271:32:32-p272:64:64-i64:64-i128:128-f80:128-n8:16:32:64-S128"
target triple = "x86_64-pc-linux-gnu"

%struct.compile_block_8 = type { ptr, ptr, ptr, ptr, ptr, ptr, ptr, ptr, ptr, ptr, i64, [10 x i64], i64, i16, i16, i16, i16, ptr, i32, i32, i32, i32, i32, ptr, ptr, ptr, i32, i32, i32, i32, i32, i32, [4 x i8], i32, i32, i32, i32, i32, i32, i32 }

; Function Attrs: nounwind uwtable
define internal i32 @set_lookbehind_lengths(ptr noundef %0, ptr noundef %1, ptr noundef %2, ptr noundef %3, ptr noundef %4) #0 {
  %6 = alloca i32, align 4
  %7 = alloca ptr, align 8
  %8 = alloca ptr, align 8
  %9 = alloca ptr, align 8
  %10 = alloca ptr, align 8
  %11 = alloca ptr, align 8
  %12 = alloca i64, align 8
  %13 = alloca ptr, align 8
  %14 = alloca ptr, align 8
  %15 = alloca i32, align 4
  %16 = alloca i32, align 4
  %17 = alloca i32, align 4
  %18 = alloca i32, align 4
  %19 = alloca i32, align 4
  store ptr %0, ptr %7, align 8
  store ptr %1, ptr %8, align 8
  store ptr %2, ptr %9, align 8
  store ptr %3, ptr %10, align 8
  store ptr %4, ptr %11, align 8
  %20 = load ptr, ptr %7, align 8
  %21 = load ptr, ptr %20, align 8
  store ptr %21, ptr %13, align 8
  %22 = load ptr, ptr %13, align 8
  store ptr %22, ptr %14, align 8
  store i32 0, ptr %15, align 4
  store i32 2147483647, ptr %16, align 4
  store i32 0, ptr %17, align 4
  %23 = load ptr, ptr %13, align 8
  %24 = getelementptr inbounds i32, ptr %23, i64 1
  %25 = load i32, ptr %24, align 4
  %26 = zext i32 %25 to i64
  %27 = shl i64 %26, 32
  %28 = load ptr, ptr %13, align 8
  %29 = getelementptr inbounds i32, ptr %28, i64 2
  %30 = load i32, ptr %29, align 4
  %31 = zext i32 %30 to i64
  %32 = or i64 %27, %31
  store i64 %32, ptr %12, align 8
  %33 = load ptr, ptr %7, align 8
  %34 = load ptr, ptr %33, align 8
  %35 = getelementptr inbounds i32, ptr %34, i64 2
  store ptr %35, ptr %33, align 8
  br label %36

36:                                               ; preds = %98, %5
  %37 = load ptr, ptr %7, align 8
  %38 = load ptr, ptr %37, align 8
  %39 = getelementptr inbounds i32, ptr %38, i64 1
  store ptr %39, ptr %37, align 8
  %40 = load ptr, ptr %7, align 8
  %41 = load ptr, ptr %8, align 8
  %42 = load ptr, ptr %9, align 8
  %43 = load ptr, ptr %10, align 8
  %44 = load ptr, ptr %11, align 8
  %45 = call i32 @get_branchlength(ptr noundef %40, ptr noundef %19, ptr noundef %41, ptr noundef %42, ptr noundef %43, ptr noundef %44)
  store i32 %45, ptr %18, align 4
  %46 = load i32, ptr %18, align 4
  %47 = icmp slt i32 %46, 0
  br i1 %47, label %48, label %64

48:                                               ; preds = %36
  %49 = load ptr, ptr %8, align 8
  %50 = load i32, ptr %49, align 4
  %51 = icmp eq i32 %50, 0
  br i1 %51, label %52, label %54

52:                                               ; preds = %48
  %53 = load ptr, ptr %8, align 8
  store i32 125, ptr %53, align 4
  br label %54

54:                                               ; preds = %52, %48
  %55 = load ptr, ptr %11, align 8
  %56 = getelementptr inbounds %struct.compile_block_8, ptr %55, i32 0, i32 12
  %57 = load i64, ptr %56, align 8
  %58 = icmp eq i64 %57, -1
  br i1 %58, label %59, label %63

59:                                               ; preds = %54
  %60 = load i64, ptr %12, align 8
  %61 = load ptr, ptr %11, align 8
  %62 = getelementptr inbounds %struct.compile_block_8, ptr %61, i32 0, i32 12
  store i64 %60, ptr %62, align 8
  br label %63

63:                                               ; preds = %59, %54
  store i32 0, ptr %6, align 4
  br label %133

64:                                               ; preds = %36
  %65 = load i32, ptr %18, align 4
  %66 = load i32, ptr %19, align 4
  %67 = icmp ne i32 %65, %66
  br i1 %67, label %68, label %69

68:                                               ; preds = %64
  store i32 1, ptr %17, align 4
  br label %69

69:                                               ; preds = %68, %64
  %70 = load i32, ptr %19, align 4
  %71 = load i32, ptr %16, align 4
  %72 = icmp slt i32 %70, %71
  br i1 %72, label %73, label %75

73:                                               ; preds = %69
  %74 = load i32, ptr %19, align 4
  store i32 %74, ptr %16, align 4
  br label %75

75:                                               ; preds = %73, %69
  %76 = load i32, ptr %18, align 4
  %77 = load i32, ptr %15, align 4
  %78 = icmp sgt i32 %76, %77
  br i1 %78, label %79, label %81

79:                                               ; preds = %75
  %80 = load i32, ptr %18, align 4
  store i32 %80, ptr %15, align 4
  br label %81

81:                                               ; preds = %79, %75
  %82 = load i32, ptr %18, align 4
  %83 = load ptr, ptr %11, align 8
  %84 = getelementptr inbounds %struct.compile_block_8, ptr %83, i32 0, i32 35
  %85 = load i32, ptr %84, align 4
  %86 = icmp sgt i32 %82, %85
  br i1 %86, label %87, label %91

87:                                               ; preds = %81
  %88 = load i32, ptr %18, align 4
  %89 = load ptr, ptr %11, align 8
  %90 = getelementptr inbounds %struct.compile_block_8, ptr %89, i32 0, i32 35
  store i32 %88, ptr %90, align 4
  br label %91

91:                                               ; preds = %87, %81
  %92 = load i32, ptr %18, align 4
  %93 = load ptr, ptr %13, align 8
  %94 = load i32, ptr %93, align 4
  %95 = or i32 %94, %92
  store i32 %95, ptr %93, align 4
  %96 = load ptr, ptr %7, align 8
  %97 = load ptr, ptr %96, align 8
  store ptr %97, ptr %13, align 8
  br label %98

98:                                               ; preds = %91
  %99 = load ptr, ptr %13, align 8
  %100 = load i32, ptr %99, align 4
  %101 = icmp eq i32 %100, -2147418112
  br i1 %101, label %36, label %102

102:                                              ; preds = %98
  %103 = load i32, ptr %17, align 4
  %104 = icmp ne i32 %103, 0
  br i1 %104, label %105, label %120

105:                                              ; preds = %102
  %106 = load i32, ptr %16, align 4
  %107 = load ptr, ptr %14, align 8
  %108 = getelementptr inbounds i32, ptr %107, i64 1
  store i32 %106, ptr %108, align 4
  %109 = load i32, ptr %15, align 4
  %110 = load ptr, ptr %11, align 8
  %111 = getelementptr inbounds %struct.compile_block_8, ptr %110, i32 0, i32 34
  %112 = load i32, ptr %111, align 8
  %113 = icmp ugt i32 %109, %112
  br i1 %113, label %114, label %119

114:                                              ; preds = %105
  %115 = load ptr, ptr %8, align 8
  store i32 200, ptr %115, align 4
  %116 = load i64, ptr %12, align 8
  %117 = load ptr, ptr %11, align 8
  %118 = getelementptr inbounds %struct.compile_block_8, ptr %117, i32 0, i32 12
  store i64 %116, ptr %118, align 8
  store i32 0, ptr %6, align 4
  br label %133

119:                                              ; preds = %105
  br label %123

120:                                              ; preds = %102
  %121 = load ptr, ptr %14, align 8
  %122 = getelementptr inbounds i32, ptr %121, i64 1
  store i32 65535, ptr %122, align 4
  br label %123

123:                                              ; preds = %120, %119
  %124 = load i32, ptr %17, align 4
  %125 = icmp ne i32 %124, 0
  br i1 %125, label %126, label %128

126:                                              ; preds = %123
  %127 = load i32, ptr %16, align 4
  br label %129

128:                                              ; preds = %123
  br label %129

129:                                              ; preds = %128, %126
  %130 = phi i32 [ %127, %126 ], [ 65535, %128 ]
  %131 = load ptr, ptr %14, align 8
  %132 = getelementptr inbounds i32, ptr %131, i64 1
  store i32 %130, ptr %132, align 4
  store i32 1, ptr %6, align 4
  br label %133

133:                                              ; preds = %129, %114, %63
  %134 = load i32, ptr %6, align 4
  ret i32 %134
}

; Function Attrs: nounwind uwtable
define internal i32 @check_lookbehinds(ptr noundef %0, ptr noundef %1, ptr noundef %2, ptr noundef %3, ptr noundef %4) #0 {
  %6 = alloca i32, align 4
  %7 = alloca ptr, align 8
  %8 = alloca ptr, align 8
  %9 = alloca ptr, align 8
  %10 = alloca ptr, align 8
  %11 = alloca ptr, align 8
  %12 = alloca i32, align 4
  %13 = alloca i32, align 4
  store ptr %0, ptr %7, align 8
  store ptr %1, ptr %8, align 8
  store ptr %2, ptr %9, align 8
  store ptr %3, ptr %10, align 8
  store ptr %4, ptr %11, align 8
  store i32 0, ptr %12, align 4
  store i32 0, ptr %13, align 4
  %14 = load ptr, ptr %10, align 8
  %15 = getelementptr inbounds %struct.compile_block_8, ptr %14, i32 0, i32 12
  store i64 -1, ptr %15, align 8
  br label %16

16:                                               ; preds = %111, %5
  %17 = load ptr, ptr %7, align 8
  %18 = load i32, ptr %17, align 4
  %19 = icmp ne i32 %18, -2147483648
  br i1 %19, label %20, label %114

20:                                               ; preds = %16
  %21 = load ptr, ptr %7, align 8
  %22 = load i32, ptr %21, align 4
  %23 = icmp ult i32 %22, -2147483648
  br i1 %23, label %24, label %25

24:                                               ; preds = %20
  br label %111

25:                                               ; preds = %20
  %26 = load ptr, ptr %7, align 8
  %27 = load i32, ptr %26, align 4
  %28 = and i32 %27, -65536
  switch i32 %28, label %29 [
    i32 -2145910784, label %30
    i32 -2145845248, label %44
    i32 -2147352576, label %56
    i32 -2146959360, label %56
    i32 -2146500608, label %56
    i32 -2145189888, label %56
    i32 -2145124352, label %56
    i32 -2144927744, label %56
    i32 -2145779712, label %56
    i32 -2145255424, label %56
    i32 -2144731136, label %59
    i32 -2147418112, label %59
    i32 -2144075776, label %59
    i32 -2144010240, label %59
    i32 -2143944704, label %59
    i32 -2147287040, label %59
    i32 -2146893824, label %59
    i32 -2146828288, label %59
    i32 -2146762752, label %59
    i32 -2146697216, label %59
    i32 -2146631680, label %59
    i32 -2146566144, label %59
    i32 -2144600064, label %59
    i32 -2146041856, label %59
    i32 -2145976320, label %59
    i32 -2144665600, label %59
    i32 -2143879168, label %59
    i32 -2143813632, label %59
    i32 -2143748096, label %59
    i32 -2144468992, label %59
    i32 -2143682560, label %59
    i32 -2143617024, label %59
    i32 -2143551488, label %59
    i32 -2145517568, label %59
    i32 -2145452032, label %59
    i32 -2144337920, label %59
    i32 -2144206848, label %59
    i32 -2145386496, label %60
    i32 -2147221504, label %63
    i32 -2145320960, label %63
    i32 -2146435072, label %66
    i32 -2146369536, label %71
    i32 -2146304000, label %71
    i32 -2146238464, label %71
    i32 -2146172928, label %71
    i32 -2146107392, label %76
    i32 -2147024896, label %81
    i32 -2147155968, label %84
    i32 -2145648640, label %84
    i32 -2145583104, label %84
    i32 -2143485952, label %87
    i32 -2143354880, label %87
    i32 -2143420416, label %87
    i32 -2145714176, label %87
    i32 -2147090432, label %90
    i32 -2144796672, label %93
    i32 -2144534528, label %93
    i32 -2144403456, label %93
    i32 -2144272384, label %93
    i32 -2144141312, label %93
    i32 -2145058816, label %101
    i32 -2144993280, label %101
    i32 -2144862208, label %101
  ]

29:                                               ; preds = %25
  store i32 170, ptr %6, align 4
  br label %115

30:                                               ; preds = %25
  %31 = load ptr, ptr %7, align 8
  %32 = load i32, ptr %31, align 4
  %33 = sub i32 %32, -2145910784
  %34 = icmp eq i32 %33, 15
  br i1 %34, label %40, label %35

35:                                               ; preds = %30
  %36 = load ptr, ptr %7, align 8
  %37 = load i32, ptr %36, align 4
  %38 = sub i32 %37, -2145910784
  %39 = icmp eq i32 %38, 16
  br i1 %39, label %40, label %43

40:                                               ; preds = %35, %30
  %41 = load ptr, ptr %7, align 8
  %42 = getelementptr inbounds i32, ptr %41, i64 1
  store ptr %42, ptr %7, align 8
  br label %43

43:                                               ; preds = %40, %35
  br label %110

44:                                               ; preds = %25
  %45 = load i32, ptr %13, align 4
  %46 = add nsw i32 %45, -1
  store i32 %46, ptr %13, align 4
  %47 = icmp slt i32 %46, 0
  br i1 %47, label %48, label %55

48:                                               ; preds = %44
  %49 = load ptr, ptr %8, align 8
  %50 = icmp ne ptr %49, null
  br i1 %50, label %51, label %54

51:                                               ; preds = %48
  %52 = load ptr, ptr %7, align 8
  %53 = load ptr, ptr %8, align 8
  store ptr %52, ptr %53, align 8
  br label %54

54:                                               ; preds = %51, %48
  store i32 0, ptr %6, align 4
  br label %115

55:                                               ; preds = %44
  br label %110

56:                                               ; preds = %25, %25, %25, %25, %25, %25, %25, %25
  %57 = load i32, ptr %13, align 4
  %58 = add nsw i32 %57, 1
  store i32 %58, ptr %13, align 4
  br label %110

59:                                               ; preds = %25, %25, %25, %25, %25, %25, %25, %25, %25, %25, %25, %25, %25, %25, %25, %25, %25, %25, %25, %25, %25, %25, %25, %25, %25, %25, %25
  br label %110

60:                                               ; preds = %25
  %61 = load ptr, ptr %7, align 8
  %62 = getelementptr inbounds i32, ptr %61, i64 2
  store ptr %62, ptr %7, align 8
  br label %110

63:                                               ; preds = %25, %25
  %64 = load ptr, ptr %7, align 8
  %65 = getelementptr inbounds i32, ptr %64, i64 3
  store ptr %65, ptr %7, align 8
  br label %110

66:                                               ; preds = %25
  %67 = load ptr, ptr %7, align 8
  %68 = getelementptr inbounds i32, ptr %67, i64 2
  store ptr %68, ptr %7, align 8
  %69 = load i32, ptr %13, align 4
  %70 = add nsw i32 %69, 1
  store i32 %70, ptr %13, align 4
  br label %110

71:                                               ; preds = %25, %25, %25, %25
  %72 = load ptr, ptr %7, align 8
  %73 = getelementptr inbounds i32, ptr %72, i64 3
  store ptr %73, ptr %7, align 8
  %74 = load i32, ptr %13, align 4
  %75 = add nsw i32 %74, 1
  store i32 %75, ptr %13, align 4
  br label %110

76:                                               ; preds = %25
  %77 = load ptr, ptr %7, align 8
  %78 = getelementptr inbounds i32, ptr %77, i64 3
  store ptr %78, ptr %7, align 8
  %79 = load i32, ptr %13, align 4
  %80 = add nsw i32 %79, 1
  store i32 %80, ptr %13, align 4
  br label %110

81:                                               ; preds = %25
  %82 = load ptr, ptr %7, align 8
  %83 = getelementptr inbounds i32, ptr %82, i64 5
  store ptr %83, ptr %7, align 8
  br label %110

84:                                               ; preds = %25, %25, %25
  %85 = load ptr, ptr %7, align 8
  %86 = getelementptr inbounds i32, ptr %85, i64 1
  store ptr %86, ptr %7, align 8
  br label %110

87:                                               ; preds = %25, %25, %25, %25
  %88 = load ptr, ptr %7, align 8
  %89 = getelementptr inbounds i32, ptr %88, i64 2
  store ptr %89, ptr %7, align 8
  br label %110

90:                                               ; preds = %25
  %91 = load ptr, ptr %7, align 8
  %92 = getelementptr inbounds i32, ptr %91, i64 3
  store ptr %92, ptr %7, align 8
  br label %110

93:                                               ; preds = %25, %25, %25, %25, %25
  %94 = load ptr, ptr %7, align 8
  %95 = getelementptr inbounds i32, ptr %94, i64 1
  %96 = load i32, ptr %95, align 4
  %97 = add i32 1, %96
  %98 = load ptr, ptr %7, align 8
  %99 = zext i32 %97 to i64
  %100 = getelementptr inbounds i32, ptr %98, i64 %99
  store ptr %100, ptr %7, align 8
  br label %110

101:                                              ; preds = %25, %25, %25
  %102 = load ptr, ptr %11, align 8
  %103 = load ptr, ptr %9, align 8
  %104 = load ptr, ptr %10, align 8
  %105 = call i32 @set_lookbehind_lengths(ptr noundef %7, ptr noundef %12, ptr noundef %102, ptr noundef %103, ptr noundef %104)
  %106 = icmp ne i32 %105, 0
  br i1 %106, label %109, label %107

107:                                              ; preds = %101
  %108 = load i32, ptr %12, align 4
  store i32 %108, ptr %6, align 4
  br label %115

109:                                              ; preds = %101
  br label %110

110:                                              ; preds = %109, %93, %90, %87, %84, %81, %76, %71, %66, %63, %60, %59, %56, %55, %43
  br label %111

111:                                              ; preds = %110, %24
  %112 = load ptr, ptr %7, align 8
  %113 = getelementptr inbounds i32, ptr %112, i32 1
  store ptr %113, ptr %7, align 8
  br label %16

114:                                              ; preds = %16
  store i32 0, ptr %6, align 4
  br label %115

115:                                              ; preds = %114, %107, %54, %29
  %116 = load i32, ptr %6, align 4
  ret i32 %116
}