; Function Attrs: nounwind uwtable
define internal fastcc i32 @check_lookbehinds(ptr noundef %0, ptr noundef writeonly %1, ptr noundef %2, ptr nocapture noundef %3, ptr nocapture noundef %4) unnamed_addr #0 {
  %6 = alloca i32, align 4
  %7 = alloca ptr, align 8
  %8 = alloca i32, align 4
  store ptr %0, ptr %7, align 8
  store i32 0, ptr %8, align 4
  %9 = getelementptr inbounds i8, ptr %3, i64 168
  store i64 -1, ptr %9, align 8
  %10 = load i32, ptr %0, align 4
  %.not34 = icmp eq i32 %10, -2147483648
  br i1 %.not34, label %.loopexit, label %.lr.ph

.lr.ph:                                           ; preds = %5
  %11 = getelementptr inbounds i8, ptr %3, i64 276
  %12 = getelementptr inbounds i8, ptr %3, i64 272
  br label %13

13:                                               ; preds = %.lr.ph, %97
  %14 = phi i32 [ %10, %.lr.ph ], [ %100, %97 ]
  %15 = phi ptr [ %0, %.lr.ph ], [ %99, %97 ]
  %.035 = phi i32 [ 0, %.lr.ph ], [ %.1, %97 ]
  %16 = icmp sgt i32 %14, -1
  br i1 %16, label %97, label %17

17:                                               ; preds = %13
  %18 = add nsw i32 %14, 2147418112
  %19 = lshr i32 %18, 16
  %trunc = trunc i32 %19 to i16
  switch i16 %trunc, label %.loopexit [
    i16 23, label %20
    i16 24, label %21
    i16 1, label %26
    i16 7, label %26
    i16 14, label %26
    i16 34, label %26
    i16 35, label %26
    i16 38, label %26
    i16 25, label %26
    i16 33, label %26
    i16 41, label %97
    i16 0, label %97
    i16 51, label %97
    i16 52, label %97
    i16 53, label %97
    i16 2, label %97
    i16 8, label %97
    i16 9, label %97
    i16 10, label %97
    i16 11, label %97
    i16 12, label %97
    i16 13, label %97
    i16 43, label %97
    i16 21, label %97
    i16 22, label %97
    i16 42, label %97
    i16 54, label %97
    i16 55, label %97
    i16 56, label %97
    i16 45, label %97
    i16 57, label %97
    i16 58, label %97
    i16 59, label %97
    i16 29, label %97
    i16 30, label %97
    i16 47, label %97
    i16 49, label %97
    i16 31, label %28
    i16 3, label %30
    i16 32, label %30
    i16 15, label %32
    i16 16, label %35
    i16 17, label %35
    i16 18, label %35
    i16 19, label %35
    i16 20, label %38
    i16 6, label %41
    i16 4, label %43
    i16 27, label %43
    i16 28, label %43
    i16 60, label %45
    i16 62, label %45
    i16 61, label %45
    i16 26, label %45
    i16 5, label %47
    i16 40, label %49
    i16 44, label %49
    i16 46, label %49
    i16 48, label %49
    i16 50, label %49
    i16 36, label %55
    i16 37, label %55
    i16 39, label %55
  ]

20:                                               ; preds = %17
  %.off = add nsw i32 %14, 2145910769
  %switch = icmp ult i32 %.off, 2
  %spec.select.idx = select i1 %switch, i64 4, i64 0
  %spec.select = getelementptr inbounds i8, ptr %15, i64 %spec.select.idx
  br label %97

21:                                               ; preds = %17
  %22 = add nsw i32 %.035, -1
  %23 = icmp slt i32 %.035, 1
  br i1 %23, label %24, label %97

24:                                               ; preds = %21
  %.not17 = icmp eq ptr %1, null
  br i1 %.not17, label %.loopexit, label %25

25:                                               ; preds = %24
  store ptr %15, ptr %1, align 8
  br label %.loopexit

26:                                               ; preds = %17, %17, %17, %17, %17, %17, %17, %17
  %27 = add nsw i32 %.035, 1
  br label %97

28:                                               ; preds = %17
  %29 = getelementptr inbounds i8, ptr %15, i64 8
  br label %97

30:                                               ; preds = %17, %17
  %31 = getelementptr inbounds i8, ptr %15, i64 12
  br label %97

32:                                               ; preds = %17
  %33 = getelementptr inbounds i8, ptr %15, i64 8
  %34 = add nsw i32 %.035, 1
  br label %97

35:                                               ; preds = %17, %17, %17, %17
  %36 = getelementptr inbounds i8, ptr %15, i64 12
  %37 = add nsw i32 %.035, 1
  br label %97

38:                                               ; preds = %17
  %39 = getelementptr inbounds i8, ptr %15, i64 12
  %40 = add nsw i32 %.035, 1
  br label %97

41:                                               ; preds = %17
  %42 = getelementptr inbounds i8, ptr %15, i64 20
  br label %97

43:                                               ; preds = %17, %17, %17
  %44 = getelementptr inbounds i8, ptr %15, i64 4
  br label %97

45:                                               ; preds = %17, %17, %17, %17
  %46 = getelementptr inbounds i8, ptr %15, i64 8
  br label %97

47:                                               ; preds = %17
  %48 = getelementptr inbounds i8, ptr %15, i64 12
  br label %97

49:                                               ; preds = %17, %17, %17, %17, %17
  %50 = getelementptr inbounds i8, ptr %15, i64 4
  %51 = load i32, ptr %50, align 4
  %52 = add i32 %51, 1
  %53 = zext i32 %52 to i64
  %54 = getelementptr inbounds i32, ptr %15, i64 %53
  br label %97

55:                                               ; preds = %17, %17, %17
  call void @llvm.lifetime.start.p0(i64 4, ptr nonnull %6)
  %56 = getelementptr inbounds i8, ptr %15, i64 4
  %57 = load i32, ptr %56, align 4
  %58 = getelementptr inbounds i8, ptr %15, i64 8
  %59 = load i32, ptr %58, align 4
  br label %60

60:                                               ; preds = %79, %55
  %61 = phi ptr [ %58, %55 ], [ %82, %79 ]
  %.047.i = phi ptr [ %15, %55 ], [ %82, %79 ]
  %.045.i = phi i32 [ 0, %55 ], [ %.146.i, %79 ]
  %.043.i = phi i32 [ 2147483647, %55 ], [ %.144.i, %79 ]
  %.042.i = phi i32 [ 0, %55 ], [ %spec.select.i, %79 ]
  %62 = getelementptr inbounds i8, ptr %61, i64 4
  store ptr %62, ptr %7, align 8
  %63 = call fastcc i32 @get_branchlength(ptr noundef nonnull %7, ptr noundef nonnull %6, ptr noundef nonnull %8, ptr noundef %4, ptr noundef %2, ptr noundef %3)
  %64 = icmp slt i32 %63, 0
  br i1 %64, label %65, label %74

65:                                               ; preds = %60
  %66 = zext i32 %57 to i64
  %67 = shl nuw i64 %66, 32
  %68 = zext i32 %59 to i64
  %69 = or disjoint i64 %67, %68
  %70 = load i32, ptr %8, align 4
  %71 = icmp eq i32 %70, 0
  %spec.select53 = select i1 %71, i32 125, i32 %70
  %72 = load i64, ptr %9, align 8
  %73 = icmp eq i64 %72, -1
  br i1 %73, label %.sink.split, label %95

74:                                               ; preds = %60
  %75 = load i32, ptr %6, align 4
  %.not.i = icmp eq i32 %63, %75
  %spec.select.i = select i1 %.not.i, i32 %.042.i, i32 1
  %.144.i = call i32 @llvm.smin.i32(i32 %75, i32 %.043.i)
  %.146.i = call i32 @llvm.smax.i32(i32 %63, i32 %.045.i)
  %76 = load i32, ptr %11, align 4
  %77 = icmp sgt i32 %63, %76
  br i1 %77, label %78, label %79

78:                                               ; preds = %74
  store i32 %63, ptr %11, align 4
  br label %79

79:                                               ; preds = %78, %74
  %80 = load i32, ptr %.047.i, align 4
  %81 = or i32 %80, %63
  store i32 %81, ptr %.047.i, align 4
  %82 = load ptr, ptr %7, align 8
  %83 = load i32, ptr %82, align 4
  %84 = icmp eq i32 %83, -2147418112
  br i1 %84, label %60, label %85

85:                                               ; preds = %79
  %.not50.i = icmp eq i32 %spec.select.i, 0
  br i1 %.not50.i, label %set_lookbehind_lengths.exit, label %86

86:                                               ; preds = %85
  store i32 %.144.i, ptr %56, align 4
  %87 = load i32, ptr %12, align 8
  %88 = icmp ugt i32 %.146.i, %87
  br i1 %88, label %89, label %set_lookbehind_lengths.exit

89:                                               ; preds = %86
  %90 = zext i32 %57 to i64
  %91 = shl nuw i64 %90, 32
  %92 = zext i32 %59 to i64
  %93 = or disjoint i64 %91, %92
  br label %.sink.split

set_lookbehind_lengths.exit:                      ; preds = %85, %86
  %94 = phi i32 [ %.144.i, %86 ], [ 65535, %85 ]
  store i32 %94, ptr %56, align 4
  call void @llvm.lifetime.end.p0(i64 4, ptr nonnull %6)
  br label %97

.sink.split:                                      ; preds = %65, %89
  %.sink = phi i64 [ %93, %89 ], [ %69, %65 ]
  %.ph = phi i32 [ 200, %89 ], [ %spec.select53, %65 ]
  store i64 %.sink, ptr %9, align 8
  br label %95

95:                                               ; preds = %.sink.split, %65
  %96 = phi i32 [ %spec.select53, %65 ], [ %.ph, %.sink.split ]
  call void @llvm.lifetime.end.p0(i64 4, ptr nonnull %6)
  br label %.loopexit

97:                                               ; preds = %20, %set_lookbehind_lengths.exit, %26, %28, %30, %32, %35, %38, %41, %43, %45, %47, %49, %21, %17, %17, %17, %17, %17, %17, %17, %17, %17, %17, %17, %17, %17, %17, %17, %17, %17, %17, %17, %17, %17, %17, %17, %17, %17, %17, %17, %13
  %98 = phi ptr [ %15, %13 ], [ %82, %set_lookbehind_lengths.exit ], [ %54, %49 ], [ %48, %47 ], [ %46, %45 ], [ %44, %43 ], [ %42, %41 ], [ %39, %38 ], [ %36, %35 ], [ %33, %32 ], [ %31, %30 ], [ %29, %28 ], [ %15, %17 ], [ %15, %17 ], [ %15, %17 ], [ %15, %17 ], [ %15, %17 ], [ %15, %17 ], [ %15, %17 ], [ %15, %17 ], [ %15, %17 ], [ %15, %17 ], [ %15, %17 ], [ %15, %17 ], [ %15, %17 ], [ %15, %17 ], [ %15, %17 ], [ %15, %17 ], [ %15, %17 ], [ %15, %17 ], [ %15, %17 ], [ %15, %17 ], [ %15, %17 ], [ %15, %17 ], [ %15, %17 ], [ %15, %17 ], [ %15, %17 ], [ %15, %17 ], [ %15, %17 ], [ %15, %26 ], [ %15, %21 ], [ %spec.select, %20 ]
  %.1 = phi i32 [ %.035, %13 ], [ %.035, %set_lookbehind_lengths.exit ], [ %.035, %49 ], [ %.035, %47 ], [ %.035, %45 ], [ %.035, %43 ], [ %.035, %41 ], [ %40, %38 ], [ %37, %35 ], [ %34, %32 ], [ %.035, %30 ], [ %.035, %28 ], [ %.035, %17 ], [ %.035, %17 ], [ %.035, %17 ], [ %.035, %17 ], [ %.035, %17 ], [ %.035, %17 ], [ %.035, %17 ], [ %.035, %17 ], [ %.035, %17 ], [ %.035, %17 ], [ %.035, %17 ], [ %.035, %17 ], [ %.035, %17 ], [ %.035, %17 ], [ %.035, %17 ], [ %.035, %17 ], [ %.035, %17 ], [ %.035, %17 ], [ %.035, %17 ], [ %.035, %17 ], [ %.035, %17 ], [ %.035, %17 ], [ %.035, %17 ], [ %.035, %17 ], [ %.035, %17 ], [ %.035, %17 ], [ %.035, %17 ], [ %27, %26 ], [ %22, %21 ], [ %.035, %20 ]
  %99 = getelementptr inbounds i8, ptr %98, i64 4
  store ptr %99, ptr %7, align 8
  %100 = load i32, ptr %99, align 4
  %.not = icmp eq i32 %100, -2147483648
  br i1 %.not, label %.loopexit, label %13

.loopexit:                                        ; preds = %17, %97, %5, %24, %25, %95
  %.011 = phi i32 [ %96, %95 ], [ 0, %25 ], [ 0, %24 ], [ 0, %5 ], [ 170, %17 ], [ 0, %97 ]
  ret i32 %.011
}